target datalayout = "e-m:e-p270:32:32-p271:32:32-p272:64:64-i64:64-i128:128-f80:128-n8:16:32:64-S128"
target triple = "x86_64-pc-linux-gnu"

@.str.30 = private unnamed_addr constant [4 x i8] c"%s\0A\00", align 1
@.str.31 = private unnamed_addr constant [41 x i8] c"Virus database is older than %lld days!\0A\00", align 1

; Function Attrs: nounwind uwtable
define i32 @check_if_cvd_outdated(ptr noundef %0, i64 noundef %1) #0 {
  %3 = alloca i32, align 4
  %4 = alloca ptr, align 8
  %5 = alloca i64, align 8
  %6 = alloca i32, align 4
  %7 = alloca i64, align 8
  store ptr %0, ptr %4, align 8
  store i64 %1, ptr %5, align 8
  %8 = load ptr, ptr %4, align 8
  %9 = call i32 @cl_cvdgetage(ptr noundef %8, ptr noundef %7)
  store i32 %9, ptr %6, align 4
  %10 = icmp ne i32 %9, 0
  br i1 %10, label %11, label %16

11:                                               ; preds = %2
  %12 = load i32, ptr %6, align 4
  %13 = call ptr @cl_strerror(i32 noundef %12)
  %14 = call i32 (i32, ptr, ...) @logg(i32 noundef 5, ptr noundef @.str.30, ptr noundef %13)
  %15 = load i32, ptr %6, align 4
  store i32 %15, ptr %3, align 4
  br label %25

16:                                               ; preds = %2
  %17 = load i64, ptr %5, align 8
  %18 = mul nsw i64 %17, 86400
  %19 = load i64, ptr %7, align 8
  %20 = icmp slt i64 %18, %19
  br i1 %20, label %21, label %24

21:                                               ; preds = %16
  %22 = load i64, ptr %5, align 8
  %23 = call i32 (i32, ptr, ...) @logg(i32 noundef 5, ptr noundef @.str.31, i64 noundef %22)
  store i32 5, ptr %3, align 4
  br label %25

24:                                               ; preds = %16
  store i32 0, ptr %3, align 4
  br label %25

25:                                               ; preds = %24, %21, %11
  %26 = load i32, ptr %3, align 4
  ret i32 %26
}