; Function Attrs: nounwind uwtable
define i32 @check_if_cvd_outdated(ptr noundef %0, i64 noundef %1) local_unnamed_addr #1 {
  %3 = alloca i64, align 8
  %4 = call i32 @cl_cvdgetage(ptr noundef %0, ptr noundef nonnull %3) #18
  %.not = icmp eq i32 %4, 0
  br i1 %.not, label %8, label %5

5:                                                ; preds = %2
  %6 = call ptr @cl_strerror(i32 noundef %4) #18
  %7 = call i32 (i32, ptr, ...) @logg(i32 noundef 5, ptr noundef nonnull @.str.30, ptr noundef %6) #18
  br label %14

8:                                                ; preds = %2
  %9 = mul nsw i64 %1, 86400
  %10 = load i64, ptr %3, align 8
  %11 = icmp slt i64 %9, %10
  br i1 %11, label %12, label %14

12:                                               ; preds = %8
  %13 = call i32 (i32, ptr, ...) @logg(i32 noundef 5, ptr noundef nonnull @.str.31, i64 noundef %1) #18
  br label %14

14:                                               ; preds = %8, %12, %5
  %.0 = phi i32 [ %4, %5 ], [ 5, %12 ], [ 0, %8 ]
  ret i32 %.0
}